target datalayout = "e-m:e-p270:32:32-p271:32:32-p272:64:64-i64:64-i128:128-f80:128-n8:16:32:64-S128"
target triple = "x86_64-unknown-linux-gnu"

%struct.BlockCopyState = type { ptr, ptr, i64, i64, i64, i32, %struct.CoMutex, i64, i32, %struct.BlockReqList, %struct.anon.0, i8, ptr, ptr, ptr, %struct.RateLimit }
%struct.CoMutex = type { i32, ptr, %struct.anon, %struct.anon, i32, i32, ptr }
%struct.anon = type { ptr }
%struct.BlockReqList = type { ptr }
%struct.anon.0 = type { ptr }
%struct.RateLimit = type { %struct.QemuMutex, i64, i64, i64, i64, i64 }
%struct.QemuMutex = type { %union.pthread_mutex_t, i8 }
%union.pthread_mutex_t = type { %struct.__pthread_mutex_s }
%struct.__pthread_mutex_s = type { i32, i32, i32, i32, i32, i16, i16, %struct.__pthread_internal_list }
%struct.__pthread_internal_list = type { ptr, ptr }
%struct.CoQueue = type { %struct.anon.12 }
%struct.anon.12 = type { ptr, ptr }
%struct.QemuLockable = type { ptr, ptr, ptr }
%struct.BlockCopyTask = type { %struct.AioTask, ptr, ptr, i32, %struct.BlockReq }
%struct.AioTask = type { ptr, ptr, i32 }
%struct.BlockReq = type { i64, i64, %struct.CoQueue, %struct.anon.13 }
%struct.anon.13 = type { ptr, ptr }

; Function Attrs: nounwind sspstrong uwtable
define internal void @qemu_lockable_unlock(ptr noundef %x) #0 {
entry:
  %x.addr = alloca ptr, align 8
  store ptr %x, ptr %x.addr, align 8
  %0 = load ptr, ptr %x.addr, align 8
  %unlock = getelementptr inbounds %struct.QemuLockable, ptr %0, i32 0, i32 2
  %1 = load ptr, ptr %unlock, align 8
  %2 = load ptr, ptr %x.addr, align 8
  %object = getelementptr inbounds %struct.QemuLockable, ptr %2, i32 0, i32 0
  %3 = load ptr, ptr %object, align 8
  call void %1(ptr noundef %3)
  ret void
}

; Function Attrs: nounwind sspstrong uwtable
define internal void @qemu_lockable_auto_unlock(ptr noundef %x) #0 {
entry:
  %x.addr = alloca ptr, align 8
  store ptr %x, ptr %x.addr, align 8
  %0 = load ptr, ptr %x.addr, align 8
  %tobool = icmp ne ptr %0, null
  br i1 %tobool, label %if.then, label %if.end

if.then:                                          ; preds = %entry
  %1 = load ptr, ptr %x.addr, align 8
  call void @qemu_lockable_unlock(ptr noundef %1)
  br label %if.end

if.end:                                           ; preds = %if.then, %entry
  ret void
}

; Function Attrs: nounwind sspstrong uwtable
define internal void @glib_autoptr_clear_QemuLockable(ptr noundef %_ptr) #0 {
entry:
  %_ptr.addr = alloca ptr, align 8
  store ptr %_ptr, ptr %_ptr.addr, align 8
  %0 = load ptr, ptr %_ptr.addr, align 8
  %tobool = icmp ne ptr %0, null
  br i1 %tobool, label %if.then, label %if.end

if.then:                                          ; preds = %entry
  %1 = load ptr, ptr %_ptr.addr, align 8
  call void @qemu_lockable_auto_unlock(ptr noundef %1)
  br label %if.end

if.end:                                           ; preds = %if.then, %entry
  ret void
}

; Function Attrs: nounwind sspstrong uwtable
define internal void @qemu_lockable_lock(ptr noundef %x) #0 {
entry:
  %x.addr = alloca ptr, align 8
  store ptr %x, ptr %x.addr, align 8
  %0 = load ptr, ptr %x.addr, align 8
  %lock = getelementptr inbounds %struct.QemuLockable, ptr %0, i32 0, i32 1
  %1 = load ptr, ptr %lock, align 8
  %2 = load ptr, ptr %x.addr, align 8
  %object = getelementptr inbounds %struct.QemuLockable, ptr %2, i32 0, i32 0
  %3 = load ptr, ptr %object, align 8
  call void %1(ptr noundef %3)
  ret void
}

; Function Attrs: nounwind sspstrong uwtable
define internal void @glib_autoptr_cleanup_QemuLockable(ptr noundef %_ptr) #0 {
entry:
  %_ptr.addr = alloca ptr, align 8
  store ptr %_ptr, ptr %_ptr.addr, align 8
  %0 = load ptr, ptr %_ptr.addr, align 8
  %1 = load ptr, ptr %0, align 8
  call void @glib_autoptr_clear_QemuLockable(ptr noundef %1)
  ret void
}

; Function Attrs: nounwind sspstrong uwtable
define internal ptr @qemu_lockable_auto_lock(ptr noundef %x) #0 {
entry:
  %x.addr = alloca ptr, align 8
  store ptr %x, ptr %x.addr, align 8
  %0 = load ptr, ptr %x.addr, align 8
  call void @qemu_lockable_lock(ptr noundef %0)
  %1 = load ptr, ptr %x.addr, align 8
  ret ptr %1
}

; Function Attrs: nounwind sspstrong uwtable
define internal void @block_copy_task_end(ptr noundef %task, i32 noundef %ret) #0 {
entry:
  %x.addr.i = alloca ptr, align 8
  %lockable.addr.i = alloca ptr, align 8
  %task.addr = alloca ptr, align 8
  %ret.addr = alloca i32, align 4
  %qemu_lockable_auto16 = alloca ptr, align 8
  %.compoundliteral = alloca %struct.QemuLockable, align 8
  store ptr %task, ptr %task.addr, align 8
  store i32 %ret, ptr %ret.addr, align 4
  %0 = load ptr, ptr %task.addr, align 8
  %s = getelementptr inbounds %struct.BlockCopyTask, ptr %0, i32 0, i32 1
  %1 = load ptr, ptr %s, align 8
  %lock = getelementptr inbounds %struct.BlockCopyState, ptr %1, i32 0, i32 6
  %object = getelementptr inbounds %struct.QemuLockable, ptr %.compoundliteral, i32 0, i32 0
  %2 = load ptr, ptr %task.addr, align 8
  %s1 = getelementptr inbounds %struct.BlockCopyTask, ptr %2, i32 0, i32 1
  %3 = load ptr, ptr %s1, align 8
  %lock2 = getelementptr inbounds %struct.BlockCopyState, ptr %3, i32 0, i32 6
  store ptr %lock2, ptr %object, align 8
  %lock3 = getelementptr inbounds %struct.QemuLockable, ptr %.compoundliteral, i32 0, i32 1
  store ptr @qemu_co_mutex_lock, ptr %lock3, align 8
  %unlock = getelementptr inbounds %struct.QemuLockable, ptr %.compoundliteral, i32 0, i32 2
  store ptr @qemu_co_mutex_unlock, ptr %unlock, align 8
  store ptr %lock, ptr %x.addr.i, align 8
  store ptr %.compoundliteral, ptr %lockable.addr.i, align 8
  %4 = load ptr, ptr %x.addr.i, align 8
  %tobool.i = icmp ne ptr %4, null
  br i1 %tobool.i, label %cond.true.i, label %cond.false.i

cond.true.i:                                      ; preds = %entry
  %5 = load ptr, ptr %lockable.addr.i, align 8
  br label %qemu_make_lockable.exit

cond.false.i:                                     ; preds = %entry
  br label %qemu_make_lockable.exit

qemu_make_lockable.exit:                          ; preds = %cond.false.i, %cond.true.i
  %cond.i = phi ptr [ %5, %cond.true.i ], [ null, %cond.false.i ]
  %call4 = call ptr @qemu_lockable_auto_lock(ptr noundef %cond.i)
  store ptr %call4, ptr %qemu_lockable_auto16, align 8
  %6 = load ptr, ptr %task.addr, align 8
  %req = getelementptr inbounds %struct.BlockCopyTask, ptr %6, i32 0, i32 4
  %bytes = getelementptr inbounds %struct.BlockReq, ptr %req, i32 0, i32 1
  %7 = load i64, ptr %bytes, align 8
  %8 = load ptr, ptr %task.addr, align 8
  %s5 = getelementptr inbounds %struct.BlockCopyTask, ptr %8, i32 0, i32 1
  %9 = load ptr, ptr %s5, align 8
  %in_flight_bytes = getelementptr inbounds %struct.BlockCopyState, ptr %9, i32 0, i32 7
  %10 = load i64, ptr %in_flight_bytes, align 8
  %sub = sub i64 %10, %7
  store i64 %sub, ptr %in_flight_bytes, align 8
  %11 = load i32, ptr %ret.addr, align 4
  %cmp = icmp slt i32 %11, 0
  br i1 %cmp, label %if.then, label %if.end

if.then:                                          ; preds = %qemu_make_lockable.exit
  %12 = load ptr, ptr %task.addr, align 8
  %s6 = getelementptr inbounds %struct.BlockCopyTask, ptr %12, i32 0, i32 1
  %13 = load ptr, ptr %s6, align 8
  %copy_bitmap = getelementptr inbounds %struct.BlockCopyState, ptr %13, i32 0, i32 12
  %14 = load ptr, ptr %copy_bitmap, align 8
  %15 = load ptr, ptr %task.addr, align 8
  %req7 = getelementptr inbounds %struct.BlockCopyTask, ptr %15, i32 0, i32 4
  %offset = getelementptr inbounds %struct.BlockReq, ptr %req7, i32 0, i32 0
  %16 = load i64, ptr %offset, align 8
  %17 = load ptr, ptr %task.addr, align 8
  %req8 = getelementptr inbounds %struct.BlockCopyTask, ptr %17, i32 0, i32 4
  %bytes9 = getelementptr inbounds %struct.BlockReq, ptr %req8, i32 0, i32 1
  %18 = load i64, ptr %bytes9, align 8
  call void @bdrv_set_dirty_bitmap(ptr noundef %14, i64 noundef %16, i64 noundef %18)
  br label %if.end

if.end:                                           ; preds = %if.then, %qemu_make_lockable.exit
  %19 = load ptr, ptr %task.addr, align 8
  %s10 = getelementptr inbounds %struct.BlockCopyTask, ptr %19, i32 0, i32 1
  %20 = load ptr, ptr %s10, align 8
  %progress = getelementptr inbounds %struct.BlockCopyState, ptr %20, i32 0, i32 13
  %21 = load ptr, ptr %progress, align 8
  %tobool = icmp ne ptr %21, null
  br i1 %tobool, label %if.then11, label %if.end19

if.then11:                                        ; preds = %if.end
  %22 = load ptr, ptr %task.addr, align 8
  %s12 = getelementptr inbounds %struct.BlockCopyTask, ptr %22, i32 0, i32 1
  %23 = load ptr, ptr %s12, align 8
  %progress13 = getelementptr inbounds %struct.BlockCopyState, ptr %23, i32 0, i32 13
  %24 = load ptr, ptr %progress13, align 8
  %25 = load ptr, ptr %task.addr, align 8
  %s14 = getelementptr inbounds %struct.BlockCopyTask, ptr %25, i32 0, i32 1
  %26 = load ptr, ptr %s14, align 8
  %copy_bitmap15 = getelementptr inbounds %struct.BlockCopyState, ptr %26, i32 0, i32 12
  %27 = load ptr, ptr %copy_bitmap15, align 8
  %call16 = call i64 @bdrv_get_dirty_count(ptr noundef %27)
  %28 = load ptr, ptr %task.addr, align 8
  %s17 = getelementptr inbounds %struct.BlockCopyTask, ptr %28, i32 0, i32 1
  %29 = load ptr, ptr %s17, align 8
  %in_flight_bytes18 = getelementptr inbounds %struct.BlockCopyState, ptr %29, i32 0, i32 7
  %30 = load i64, ptr %in_flight_bytes18, align 8
  %add = add i64 %call16, %30
  call void @progress_set_remaining(ptr noundef %24, i64 noundef %add)
  br label %if.end19

if.end19:                                         ; preds = %if.then11, %if.end
  %31 = load ptr, ptr %task.addr, align 8
  %req20 = getelementptr inbounds %struct.BlockCopyTask, ptr %31, i32 0, i32 4
  call void @reqlist_remove_req(ptr noundef %req20)
  call void @glib_autoptr_cleanup_QemuLockable(ptr noundef %qemu_lockable_auto16)
  ret void
}