; Function Attrs: nounwind sspstrong uwtable
define internal void @block_copy_task_end(ptr noundef %task, i32 noundef %ret) #0 {
entry:
  %s = getelementptr inbounds nuw i8, ptr %task, i64 24
  %0 = load ptr, ptr %s, align 8
  %lock = getelementptr inbounds nuw i8, ptr %0, i64 48
  tail call void @qemu_co_mutex_lock(ptr noundef nonnull %lock) #14
  %req = getelementptr inbounds nuw i8, ptr %task, i64 48
  %bytes = getelementptr inbounds nuw i8, ptr %task, i64 56
  %1 = load i64, ptr %bytes, align 8
  %2 = load ptr, ptr %s, align 8
  %in_flight_bytes = getelementptr inbounds nuw i8, ptr %2, i64 96
  %3 = load i64, ptr %in_flight_bytes, align 8
  %sub = sub i64 %3, %1
  store i64 %sub, ptr %in_flight_bytes, align 8
  %cmp = icmp slt i32 %ret, 0
  br i1 %cmp, label %if.then, label %if.end

if.then:                                          ; preds = %entry
  %4 = load ptr, ptr %s, align 8
  %copy_bitmap = getelementptr inbounds nuw i8, ptr %4, i64 136
  %5 = load ptr, ptr %copy_bitmap, align 8
  %6 = load i64, ptr %req, align 8
  %7 = load i64, ptr %bytes, align 8
  tail call void @bdrv_set_dirty_bitmap(ptr noundef %5, i64 noundef %6, i64 noundef %7) #14
  br label %if.end

if.end:                                           ; preds = %if.then, %entry
  %8 = load ptr, ptr %s, align 8
  %progress = getelementptr inbounds nuw i8, ptr %8, i64 144
  %9 = load ptr, ptr %progress, align 8
  %tobool.not = icmp eq ptr %9, null
  br i1 %tobool.not, label %glib_autoptr_cleanup_QemuLockable.exit, label %if.then11

if.then11:                                        ; preds = %if.end
  %copy_bitmap15 = getelementptr inbounds nuw i8, ptr %8, i64 136
  %10 = load ptr, ptr %copy_bitmap15, align 8
  %call16 = tail call i64 @bdrv_get_dirty_count(ptr noundef %10) #14
  %11 = load ptr, ptr %s, align 8
  %in_flight_bytes18 = getelementptr inbounds nuw i8, ptr %11, i64 96
  %12 = load i64, ptr %in_flight_bytes18, align 8
  %add = add i64 %12, %call16
  tail call void @progress_set_remaining(ptr noundef nonnull %9, i64 noundef %add) #14
  br label %glib_autoptr_cleanup_QemuLockable.exit

glib_autoptr_cleanup_QemuLockable.exit:           ; preds = %if.then11, %if.end
  tail call void @reqlist_remove_req(ptr noundef nonnull %req) #14
  tail call void @qemu_co_mutex_unlock(ptr noundef nonnull %lock) #14
  ret void
}